; Function Attrs: mustprogress uwtable
define void @_ZN7rocksdb21VerifySstFileChecksumERKNS_7OptionsERKNS_10EnvOptionsERKNS_11ReadOptionsERKNSt7__cxx1112basic_stringIcSt11char_traitsIcESaIcEEERKm(ptr noalias sret(%"class.rocksdb::Status") align 8 %agg.result, ptr noundef nonnull align 8 dereferenceable(1508) %options, ptr noundef nonnull align 8 dereferenceable(56) %env_options, ptr noundef nonnull align 8 dereferenceable(154) %_read_options, ptr noundef nonnull align 8 dereferenceable(32) %file_path, ptr nocapture noundef nonnull readonly align 8 dereferenceable(8) %largest_seqno) local_unnamed_addr #3 personality ptr @__gxx_personality_v0 {
entry:
  %ref.tmp = alloca %"class.rocksdb::Slice", align 8
  %ref.tmp1 = alloca %"class.rocksdb::Slice", align 8
  %read_options = alloca %"struct.rocksdb::ReadOptions", align 8
  %io_activity = getelementptr inbounds i8, ptr %_read_options, i64 153
  %0 = load i8, ptr %io_activity, align 1
  %cmp.not = icmp eq i8 %0, 10
  br i1 %cmp.not, label %if.end, label %if.then

if.then:                                          ; preds = %entry
  store ptr @.str, ptr %ref.tmp, align 8
  %size_.i = getelementptr inbounds i8, ptr %ref.tmp, i64 8
  store i64 98, ptr %size_.i, align 8
  store ptr @.str.1, ptr %ref.tmp1, align 8
  %size_.i2 = getelementptr inbounds i8, ptr %ref.tmp1, i64 8
  store i64 0, ptr %size_.i2, align 8
  call void @_ZN7rocksdb6StatusC2ENS0_4CodeENS0_7SubCodeERKNS_5SliceES5_NS0_8SeverityE(ptr noundef nonnull align 8 dereferenceable(16) %agg.result, i8 noundef zeroext 4, i8 noundef zeroext 0, ptr noundef nonnull align 8 dereferenceable(16) %ref.tmp, ptr noundef nonnull align 8 dereferenceable(16) %ref.tmp1, i8 noundef zeroext 0)
  br label %return

if.end:                                           ; preds = %entry
  call void @llvm.memcpy.p0.p0.i64(ptr noundef nonnull align 8 dereferenceable(120) %read_options, ptr noundef nonnull align 8 dereferenceable(120) %_read_options, i64 120, i1 false)
  %table_filter.i = getelementptr inbounds i8, ptr %read_options, i64 120
  %_M_manager.i.i.i = getelementptr inbounds i8, ptr %read_options, i64 136
  %_M_manager.i.i.i.i = getelementptr inbounds i8, ptr %_read_options, i64 136
  call void @llvm.memset.p0.i64(ptr noundef nonnull align 8 dereferenceable(32) %table_filter.i, i8 0, i64 32, i1 false)
  %1 = load ptr, ptr %_M_manager.i.i.i.i, align 8
  %tobool.not.i.i.not.i.i = icmp eq ptr %1, null
  br i1 %tobool.not.i.i.not.i.i, label %_ZN7rocksdb11ReadOptionsC2ERKS0_.exit, label %if.then.i.i

if.then.i.i:                                      ; preds = %if.end
  %table_filter3.i = getelementptr inbounds i8, ptr %_read_options, i64 120
  %call3.i.i = invoke noundef zeroext i1 %1(ptr noundef nonnull align 8 dereferenceable(16) %table_filter.i, ptr noundef nonnull align 8 dereferenceable(16) %table_filter3.i, i32 noundef 2)
          to label %invoke.cont.i.i unwind label %lpad.i.i

invoke.cont.i.i:                                  ; preds = %if.then.i.i
  %2 = load <2 x ptr>, ptr %_M_manager.i.i.i.i, align 8
  store <2 x ptr> %2, ptr %_M_manager.i.i.i, align 8
  br label %_ZN7rocksdb11ReadOptionsC2ERKS0_.exit

lpad.i.i:                                         ; preds = %if.then.i.i
  %3 = landingpad { ptr, i32 }
          cleanup
  %4 = load ptr, ptr %_M_manager.i.i.i, align 8
  %tobool.not.i.i.i = icmp eq ptr %4, null
  br i1 %tobool.not.i.i.i, label %common.resume, label %if.then.i.i.i

if.then.i.i.i:                                    ; preds = %lpad.i.i
  %call.i.i.i = invoke noundef zeroext i1 %4(ptr noundef nonnull align 8 dereferenceable(16) %table_filter.i, ptr noundef nonnull align 8 dereferenceable(16) %table_filter.i, i32 noundef 3)
          to label %common.resume unwind label %terminate.lpad.i.i.i

terminate.lpad.i.i.i:                             ; preds = %if.then.i.i.i
  %5 = landingpad { ptr, i32 }
          catch ptr null
  %6 = extractvalue { ptr, i32 } %5, 0
  call void @__clang_call_terminate(ptr %6) #17
  unreachable

common.resume:                                    ; preds = %if.then.i.i.i11, %lpad, %lpad.i.i, %if.then.i.i.i
  %common.resume.op = phi { ptr, i32 } [ %3, %if.then.i.i.i ], [ %3, %lpad.i.i ], [ %11, %lpad ], [ %11, %if.then.i.i.i11 ]
  resume { ptr, i32 } %common.resume.op

_ZN7rocksdb11ReadOptionsC2ERKS0_.exit:            ; preds = %if.end, %invoke.cont.i.i
  %auto_readahead_size.i = getelementptr inbounds i8, ptr %read_options, i64 152
  %auto_readahead_size4.i = getelementptr inbounds i8, ptr %_read_options, i64 152
  %7 = load i16, ptr %auto_readahead_size4.i, align 8
  store i16 %7, ptr %auto_readahead_size.i, align 8
  invoke void @_ZN7rocksdb29VerifySstFileChecksumInternalERKNS_7OptionsERKNS_10EnvOptionsERKNS_11ReadOptionsERKNSt7__cxx1112basic_stringIcSt11char_traitsIcESaIcEEERKm(ptr sret(%"class.rocksdb::Status") align 8 %agg.result, ptr noundef nonnull align 8 dereferenceable(1508) %options, ptr noundef nonnull align 8 dereferenceable(56) %env_options, ptr noundef nonnull align 8 dereferenceable(154) %read_options, ptr noundef nonnull align 8 dereferenceable(32) %file_path, ptr noundef nonnull align 8 dereferenceable(8) %largest_seqno)
          to label %invoke.cont unwind label %lpad

invoke.cont:                                      ; preds = %_ZN7rocksdb11ReadOptionsC2ERKS0_.exit
  %8 = load ptr, ptr %_M_manager.i.i.i, align 8
  %tobool.not.i.i.i4 = icmp eq ptr %8, null
  br i1 %tobool.not.i.i.i4, label %return, label %if.then.i.i.i5

if.then.i.i.i5:                                   ; preds = %invoke.cont
  %call.i.i.i7 = invoke noundef zeroext i1 %8(ptr noundef nonnull align 8 dereferenceable(16) %table_filter.i, ptr noundef nonnull align 8 dereferenceable(16) %table_filter.i, i32 noundef 3)
          to label %return unwind label %terminate.lpad.i.i.i8

terminate.lpad.i.i.i8:                            ; preds = %if.then.i.i.i5
  %9 = landingpad { ptr, i32 }
          catch ptr null
  %10 = extractvalue { ptr, i32 } %9, 0
  call void @__clang_call_terminate(ptr %10) #17
  unreachable

lpad:                                             ; preds = %_ZN7rocksdb11ReadOptionsC2ERKS0_.exit
  %11 = landingpad { ptr, i32 }
          cleanup
  %12 = load ptr, ptr %_M_manager.i.i.i, align 8
  %tobool.not.i.i.i10 = icmp eq ptr %12, null
  br i1 %tobool.not.i.i.i10, label %common.resume, label %if.then.i.i.i11

if.then.i.i.i11:                                  ; preds = %lpad
  %call.i.i.i13 = invoke noundef zeroext i1 %12(ptr noundef nonnull align 8 dereferenceable(16) %table_filter.i, ptr noundef nonnull align 8 dereferenceable(16) %table_filter.i, i32 noundef 3)
          to label %common.resume unwind label %terminate.lpad.i.i.i14

terminate.lpad.i.i.i14:                           ; preds = %if.then.i.i.i11
  %13 = landingpad { ptr, i32 }
          catch ptr null
  %14 = extractvalue { ptr, i32 } %13, 0
  call void @__clang_call_terminate(ptr %14) #17
  unreachable

return:                                           ; preds = %if.then.i.i.i5, %invoke.cont, %if.then
  ret void
}